target datalayout = "e-m:e-p270:32:32-p271:32:32-p272:64:64-i64:64-i128:128-f80:128-n8:16:32:64-S128"
target triple = "x86_64-pc-linux-gnu"

%"class.fmt::v11::basic_string_view" = type { ptr, i64 }
%"class.fmt::v11::buffered_file" = type { ptr }
%"class.fmt::v11::basic_cstring_view" = type { ptr }
%"class.fmt::v11::basic_format_args" = type { i64, %union.anon.97 }
%union.anon.97 = type { ptr }
%"class.fmt::v11::detail::value" = type { %union.anon.98 }
%union.anon.98 = type { i128 }
%"struct.fmt::v11::detail::format_arg_store.103" = type { [1 x %"class.fmt::v11::detail::value"] }
%"struct.fmt::v11::detail::string_value" = type { ptr, i64 }

@.str.1 = private unnamed_addr constant [2 x i8] c"w\00", align 1
@.str.2 = private unnamed_addr constant [3 x i8] c"{}\00", align 1
@_ZN3fmt3v1113buffered_fileD1Ev = hidden unnamed_addr alias void (ptr), ptr @_ZN3fmt3v1113buffered_fileD2Ev
@_ZN3fmt3v1113buffered_fileC1ENS0_18basic_cstring_viewIcEES3_ = hidden unnamed_addr alias void (ptr, ptr, ptr), ptr @_ZN3fmt3v1113buffered_fileC2ENS0_18basic_cstring_viewIcEES3_

; Function Attrs: mustprogress nounwind uwtable
define linkonce_odr hidden noundef i64 @_ZNK3fmt3v1117basic_string_viewIcE4sizeEv(ptr noundef nonnull align 8 dereferenceable(16) %0) #0 comdat align 2 {
  %2 = alloca ptr, align 8
  store ptr %0, ptr %2, align 8, !tbaa !109
  %3 = load ptr, ptr %2, align 8
  %4 = getelementptr inbounds nuw %"class.fmt::v11::basic_string_view", ptr %3, i32 0, i32 1
  %5 = load i64, ptr %4, align 8, !tbaa !113
  ret i64 %5
}

; Function Attrs: mustprogress nounwind uwtable
define linkonce_odr hidden noundef ptr @_ZNK3fmt3v1117basic_string_viewIcE4dataEv(ptr noundef nonnull align 8 dereferenceable(16) %0) #0 comdat align 2 {
  %2 = alloca ptr, align 8
  store ptr %0, ptr %2, align 8, !tbaa !109
  %3 = load ptr, ptr %2, align 8
  %4 = getelementptr inbounds nuw %"class.fmt::v11::basic_string_view", ptr %3, i32 0, i32 0
  %5 = load ptr, ptr %4, align 8, !tbaa !111
  ret ptr %5
}

; Function Attrs: mustprogress nounwind uwtable
define linkonce_odr hidden { ptr, i64 } @_ZN3fmt3v116detail14to_string_viewIcEENS0_17basic_string_viewIT_EES5_(ptr %0, i64 %1) #0 comdat {
  %3 = alloca %"class.fmt::v11::basic_string_view", align 8
  %4 = alloca %"class.fmt::v11::basic_string_view", align 8
  %5 = getelementptr inbounds nuw { ptr, i64 }, ptr %4, i32 0, i32 0
  store ptr %0, ptr %5, align 8
  %6 = getelementptr inbounds nuw { ptr, i64 }, ptr %4, i32 0, i32 1
  store i64 %1, ptr %6, align 8
  call void @llvm.memcpy.p0.p0.i64(ptr align 8 %3, ptr align 8 %4, i64 16, i1 false), !tbaa.struct !25
  %7 = load { ptr, i64 }, ptr %3, align 8
  ret { ptr, i64 } %7
}

; Function Attrs: alwaysinline mustprogress nounwind uwtable
define linkonce_odr hidden void @"_ZN3fmt3v1117basic_format_argsINS0_7contextEEC2ILi1ELi0ELy13ETnNSt9enable_ifIXleT_LNS0_6detail4$_14E15EEiE4typeELi0EEERKNS6_16format_arg_storeIS2_XT_EXT0_EXT1_EEE"(ptr noundef nonnull align 8 dereferenceable(16) %0, ptr noundef nonnull align 16 dereferenceable(16) %1) unnamed_addr #8 comdat align 2 {
  %3 = alloca ptr, align 8
  %4 = alloca ptr, align 8
  store ptr %0, ptr %3, align 8, !tbaa !327
  store ptr %1, ptr %4, align 8, !tbaa !345
  %5 = load ptr, ptr %3, align 8
  %6 = getelementptr inbounds nuw %"class.fmt::v11::basic_format_args", ptr %5, i32 0, i32 0
  store i64 13, ptr %6, align 8, !tbaa !331
  %7 = getelementptr inbounds nuw %"class.fmt::v11::basic_format_args", ptr %5, i32 0, i32 1
  %8 = load ptr, ptr %4, align 8, !tbaa !345
  %9 = getelementptr inbounds nuw %"struct.fmt::v11::detail::format_arg_store.103", ptr %8, i32 0, i32 0
  %10 = getelementptr inbounds [1 x %"class.fmt::v11::detail::value"], ptr %9, i64 0, i64 0
  store ptr %10, ptr %7, align 8, !tbaa !53
  ret void
}

; Function Attrs: mustprogress uwtable
define linkonce_odr hidden void @_ZN3fmt3v116detail5valueINS0_7contextEEC2INS0_17basic_string_viewIcEEcTnNSt9enable_ifIXntsr3std10is_pointerIT_EE5valueEiE4typeELi0EEERKS9_(ptr noundef nonnull align 16 dereferenceable(16) %0, ptr noundef nonnull align 8 dereferenceable(16) %1) unnamed_addr #1 comdat align 2 {
  %3 = alloca ptr, align 8
  %4 = alloca ptr, align 8
  %5 = alloca %"class.fmt::v11::basic_string_view", align 8
  %6 = alloca %"class.fmt::v11::basic_string_view", align 8
  store ptr %0, ptr %3, align 8, !tbaa !325
  store ptr %1, ptr %4, align 8, !tbaa !109
  %7 = load ptr, ptr %3, align 8
  call void @llvm.lifetime.start.p0(i64 16, ptr %5) #16
  %8 = load ptr, ptr %4, align 8, !tbaa !109
  call void @llvm.memcpy.p0.p0.i64(ptr align 8 %6, ptr align 8 %8, i64 16, i1 false), !tbaa.struct !25
  %9 = getelementptr inbounds nuw { ptr, i64 }, ptr %6, i32 0, i32 0
  %10 = load ptr, ptr %9, align 8
  %11 = getelementptr inbounds nuw { ptr, i64 }, ptr %6, i32 0, i32 1
  %12 = load i64, ptr %11, align 8
  %13 = call { ptr, i64 } @_ZN3fmt3v116detail14to_string_viewIcEENS0_17basic_string_viewIT_EES5_(ptr %10, i64 %12)
  %14 = getelementptr inbounds nuw { ptr, i64 }, ptr %5, i32 0, i32 0
  %15 = extractvalue { ptr, i64 } %13, 0
  store ptr %15, ptr %14, align 8
  %16 = getelementptr inbounds nuw { ptr, i64 }, ptr %5, i32 0, i32 1
  %17 = extractvalue { ptr, i64 } %13, 1
  store i64 %17, ptr %16, align 8
  %18 = call noundef ptr @_ZNK3fmt3v1117basic_string_viewIcE4dataEv(ptr noundef nonnull align 8 dereferenceable(16) %5) #16
  %19 = getelementptr inbounds nuw %"class.fmt::v11::detail::value", ptr %7, i32 0, i32 0
  %20 = getelementptr inbounds nuw %"struct.fmt::v11::detail::string_value", ptr %19, i32 0, i32 0
  store ptr %18, ptr %20, align 16, !tbaa !53
  %21 = call noundef i64 @_ZNK3fmt3v1117basic_string_viewIcE4sizeEv(ptr noundef nonnull align 8 dereferenceable(16) %5) #16
  %22 = getelementptr inbounds nuw %"class.fmt::v11::detail::value", ptr %7, i32 0, i32 0
  %23 = getelementptr inbounds nuw %"struct.fmt::v11::detail::string_value", ptr %22, i32 0, i32 1
  store i64 %21, ptr %23, align 8, !tbaa !53
  call void @llvm.lifetime.end.p0(i64 16, ptr %5) #16
  ret void
}

; Function Attrs: alwaysinline mustprogress nounwind uwtable
define linkonce_odr hidden noundef ptr @_ZN3fmt3v116detail6narrowEPKc(ptr noundef %0) #8 comdat {
  %2 = alloca ptr, align 8
  store ptr %0, ptr %2, align 8, !tbaa !17
  %3 = load ptr, ptr %2, align 8, !tbaa !17
  ret ptr %3
}

; Function Attrs: inlinehint mustprogress uwtable
define linkonce_odr hidden void @_ZN3fmt3v1113buffered_file5printIJNS0_17basic_string_viewIcEEEEEvS4_DpRKT_(ptr noundef nonnull align 8 dereferenceable(8) %0, ptr %1, i64 %2, ptr noundef nonnull align 8 dereferenceable(16) %3) #6 comdat align 2 {
  %5 = alloca %"class.fmt::v11::basic_string_view", align 8
  %6 = alloca ptr, align 8
  %7 = alloca ptr, align 8
  %8 = alloca %"struct.fmt::v11::detail::format_arg_store.103", align 16
  %9 = alloca %"class.fmt::v11::basic_string_view", align 8
  %10 = alloca %"class.fmt::v11::basic_format_args", align 8
  %11 = getelementptr inbounds nuw { ptr, i64 }, ptr %5, i32 0, i32 0
  store ptr %1, ptr %11, align 8
  %12 = getelementptr inbounds nuw { ptr, i64 }, ptr %5, i32 0, i32 1
  store i64 %2, ptr %12, align 8
  store ptr %0, ptr %6, align 8, !tbaa !4
  store ptr %3, ptr %7, align 8, !tbaa !109
  %13 = load ptr, ptr %6, align 8
  call void @llvm.lifetime.start.p0(i64 16, ptr %8) #16
  %14 = getelementptr inbounds nuw %"struct.fmt::v11::detail::format_arg_store.103", ptr %8, i32 0, i32 0
  %15 = load ptr, ptr %7, align 8, !tbaa !109
  call void @_ZN3fmt3v116detail5valueINS0_7contextEEC2INS0_17basic_string_viewIcEEcTnNSt9enable_ifIXntsr3std10is_pointerIT_EE5valueEiE4typeELi0EEERKS9_(ptr noundef nonnull align 16 dereferenceable(16) %14, ptr noundef nonnull align 8 dereferenceable(16) %15)
  %16 = getelementptr inbounds nuw %"class.fmt::v11::buffered_file", ptr %13, i32 0, i32 0
  %17 = load ptr, ptr %16, align 8, !tbaa !9
  call void @llvm.memcpy.p0.p0.i64(ptr align 8 %9, ptr align 8 %5, i64 16, i1 false), !tbaa.struct !25
  call void @"_ZN3fmt3v1117basic_format_argsINS0_7contextEEC2ILi1ELi0ELy13ETnNSt9enable_ifIXleT_LNS0_6detail4$_14E15EEiE4typeELi0EEERKNS6_16format_arg_storeIS2_XT_EXT0_EXT1_EEE"(ptr noundef nonnull align 8 dereferenceable(16) %10, ptr noundef nonnull align 16 dereferenceable(16) %8)
  %18 = getelementptr inbounds nuw { ptr, i64 }, ptr %9, i32 0, i32 0
  %19 = load ptr, ptr %18, align 8
  %20 = getelementptr inbounds nuw { ptr, i64 }, ptr %9, i32 0, i32 1
  %21 = load i64, ptr %20, align 8
  %22 = getelementptr inbounds nuw { i64, ptr }, ptr %10, i32 0, i32 0
  %23 = load i64, ptr %22, align 8
  %24 = getelementptr inbounds nuw { i64, ptr }, ptr %10, i32 0, i32 1
  %25 = load ptr, ptr %24, align 8
  call void @_ZN3fmt3v116vprintEP8_IO_FILENS0_17basic_string_viewIcEENS0_17basic_format_argsINS0_7contextEEE(ptr noundef %17, ptr %19, i64 %21, i64 %23, ptr %25)
  call void @llvm.lifetime.end.p0(i64 16, ptr %8) #16
  ret void
}

; Function Attrs: mustprogress uwtable
define linkonce_odr hidden void @_ZN3fmt3v1117basic_string_viewIcEC2EPKc(ptr noundef nonnull align 8 dereferenceable(16) %0, ptr noundef %1) unnamed_addr #1 comdat align 2 {
  %3 = alloca ptr, align 8
  %4 = alloca ptr, align 8
  store ptr %0, ptr %3, align 8, !tbaa !109
  store ptr %1, ptr %4, align 8, !tbaa !17
  %5 = load ptr, ptr %3, align 8
  %6 = getelementptr inbounds nuw %"class.fmt::v11::basic_string_view", ptr %5, i32 0, i32 0
  %7 = load ptr, ptr %4, align 8, !tbaa !17
  store ptr %7, ptr %6, align 8, !tbaa !111
  %8 = load ptr, ptr %4, align 8, !tbaa !17
  %9 = call noundef ptr @_ZN3fmt3v116detail6narrowEPKc(ptr noundef %8)
  %10 = call i64 @strlen(ptr noundef %9) #16
  %11 = getelementptr inbounds nuw %"class.fmt::v11::basic_string_view", ptr %5, i32 0, i32 1
  store i64 %10, ptr %11, align 8, !tbaa !113
  ret void
}

; Function Attrs: mustprogress nounwind uwtable
define linkonce_odr hidden void @_ZN3fmt3v1118basic_cstring_viewIcEC2EPKc(ptr noundef nonnull align 8 dereferenceable(8) %0, ptr noundef %1) unnamed_addr #0 comdat align 2 {
  %3 = alloca ptr, align 8
  %4 = alloca ptr, align 8
  store ptr %0, ptr %3, align 8, !tbaa !19
  store ptr %1, ptr %4, align 8, !tbaa !17
  %5 = load ptr, ptr %3, align 8
  %6 = getelementptr inbounds nuw %"class.fmt::v11::basic_cstring_view", ptr %5, i32 0, i32 0
  %7 = load ptr, ptr %4, align 8, !tbaa !17
  store ptr %7, ptr %6, align 8, !tbaa !21
  ret void
}

; Function Attrs: mustprogress uwtable
define hidden void @_Z10write_fileN3fmt3v1118basic_cstring_viewIcEENS0_17basic_string_viewIcEE(ptr %0, ptr %1, i64 %2) #1 personality ptr @__gxx_personality_v0 {
  %4 = alloca %"class.fmt::v11::basic_cstring_view", align 8
  %5 = alloca %"class.fmt::v11::basic_string_view", align 8
  %6 = alloca %"class.fmt::v11::buffered_file", align 8
  %7 = alloca %"class.fmt::v11::basic_cstring_view", align 8
  %8 = alloca %"class.fmt::v11::basic_cstring_view", align 8
  %9 = alloca %"class.fmt::v11::basic_string_view", align 8
  %10 = alloca ptr, align 8
  %11 = alloca i32, align 4
  %12 = getelementptr inbounds nuw %"class.fmt::v11::basic_cstring_view", ptr %4, i32 0, i32 0
  store ptr %0, ptr %12, align 8
  %13 = getelementptr inbounds nuw { ptr, i64 }, ptr %5, i32 0, i32 0
  store ptr %1, ptr %13, align 8
  %14 = getelementptr inbounds nuw { ptr, i64 }, ptr %5, i32 0, i32 1
  store i64 %2, ptr %14, align 8
  call void @llvm.lifetime.start.p0(i64 8, ptr %6) #16
  call void @llvm.memcpy.p0.p0.i64(ptr align 8 %7, ptr align 8 %4, i64 8, i1 false), !tbaa.struct !103
  call void @_ZN3fmt3v1118basic_cstring_viewIcEC2EPKc(ptr noundef nonnull align 8 dereferenceable(8) %8, ptr noundef @.str.1)
  %15 = getelementptr inbounds nuw %"class.fmt::v11::basic_cstring_view", ptr %7, i32 0, i32 0
  %16 = load ptr, ptr %15, align 8
  %17 = getelementptr inbounds nuw %"class.fmt::v11::basic_cstring_view", ptr %8, i32 0, i32 0
  %18 = load ptr, ptr %17, align 8
  call void @_ZN3fmt3v1113buffered_fileC1ENS0_18basic_cstring_viewIcEES3_(ptr noundef nonnull align 8 dereferenceable(8) %6, ptr %16, ptr %18)
  invoke void @_ZN3fmt3v1117basic_string_viewIcEC2EPKc(ptr noundef nonnull align 8 dereferenceable(16) %9, ptr noundef @.str.2)
          to label %19 unwind label %25

19:                                               ; preds = %3
  %20 = getelementptr inbounds nuw { ptr, i64 }, ptr %9, i32 0, i32 0
  %21 = load ptr, ptr %20, align 8
  %22 = getelementptr inbounds nuw { ptr, i64 }, ptr %9, i32 0, i32 1
  %23 = load i64, ptr %22, align 8
  invoke void @_ZN3fmt3v1113buffered_file5printIJNS0_17basic_string_viewIcEEEEEvS4_DpRKT_(ptr noundef nonnull align 8 dereferenceable(8) %6, ptr %21, i64 %23, ptr noundef nonnull align 8 dereferenceable(16) %5)
          to label %24 unwind label %25

24:                                               ; preds = %19
  call void @_ZN3fmt3v1113buffered_fileD1Ev(ptr noundef nonnull align 8 dereferenceable(8) %6) #16
  call void @llvm.lifetime.end.p0(i64 8, ptr %6) #16
  ret void

25:                                               ; preds = %19, %3
  %26 = landingpad { ptr, i32 }
          cleanup
  %27 = extractvalue { ptr, i32 } %26, 0
  store ptr %27, ptr %10, align 8
  %28 = extractvalue { ptr, i32 } %26, 1
  store i32 %28, ptr %11, align 4
  call void @_ZN3fmt3v1113buffered_fileD1Ev(ptr noundef nonnull align 8 dereferenceable(8) %6) #16
  call void @llvm.lifetime.end.p0(i64 8, ptr %6) #16
  br label %29

29:                                               ; preds = %25
  %30 = load ptr, ptr %10, align 8
  %31 = load i32, ptr %11, align 4
  %32 = insertvalue { ptr, i32 } poison, ptr %30, 0
  %33 = insertvalue { ptr, i32 } %32, i32 %31, 1
  resume { ptr, i32 } %33
}