; Function Attrs: mustprogress uwtable
define hidden void @_Z10write_fileN3fmt3v1118basic_cstring_viewIcEENS0_17basic_string_viewIcEE(ptr %0, ptr %1, i64 %2) local_unnamed_addr #6 personality ptr @__gxx_personality_v0 {
  %4 = alloca %"struct.fmt::v11::detail::format_arg_store.103", align 16
  %5 = alloca %"class.fmt::v11::buffered_file", align 8
  call void @llvm.lifetime.start.p0(i64 8, ptr nonnull %5) #29
  call void @_ZN3fmt3v1113buffered_fileC2ENS0_18basic_cstring_viewIcEES3_(ptr noundef nonnull align 8 dereferenceable(8) %5, ptr %0, ptr nonnull @.str.1)
  call void @llvm.lifetime.start.p0(i64 16, ptr nonnull %4) #29
  store ptr %1, ptr %4, align 16, !tbaa !17
  %6 = getelementptr inbounds nuw i8, ptr %4, i64 8
  store i64 %2, ptr %6, align 8, !tbaa !17
  %7 = load ptr, ptr %5, align 8, !tbaa !4
  invoke void @_ZN3fmt3v116vprintEP8_IO_FILENS0_17basic_string_viewIcEENS0_17basic_format_argsINS0_7contextEEE(ptr noundef %7, ptr nonnull @.str.2, i64 2, i64 13, ptr nonnull %4)
          to label %8 unwind label %17

8:                                                ; preds = %3
  call void @llvm.lifetime.end.p0(i64 16, ptr nonnull %4) #29
  %.not.i = icmp eq ptr %7, null
  br i1 %.not.i, label %_ZN3fmt3v1113buffered_fileD2Ev.exit, label %9

9:                                                ; preds = %8
  %10 = load i32, ptr @_ZN12_GLOBAL__N_112fclose_countE, align 4, !tbaa !10
  %.not.i.i = icmp eq i32 %10, 0
  br i1 %.not.i.i, label %_ZN4test6fcloseEP8_IO_FILE.exit.i, label %11

11:                                               ; preds = %9
  %12 = add nsw i32 %10, 1
  store i32 %12, ptr @_ZN12_GLOBAL__N_112fclose_countE, align 4, !tbaa !10
  %.not2.i.i = icmp eq i32 %10, 3
  br i1 %.not2.i.i, label %_ZN4test6fcloseEP8_IO_FILE.exit.i, label %_ZN4test6fcloseEP8_IO_FILE.exit.thread.i

_ZN4test6fcloseEP8_IO_FILE.exit.thread.i:         ; preds = %11
  %13 = tail call ptr @__errno_location() #28
  store i32 4, ptr %13, align 4, !tbaa !10
  br label %15

_ZN4test6fcloseEP8_IO_FILE.exit.i:                ; preds = %11, %9
  %14 = call i32 @fclose(ptr noundef nonnull %7)
  %.not1.i = icmp eq i32 %14, 0
  br i1 %.not1.i, label %_ZN3fmt3v1113buffered_fileD2Ev.exit, label %_ZN4test6fcloseEP8_IO_FILE.exit._crit_edge.i

_ZN4test6fcloseEP8_IO_FILE.exit._crit_edge.i:     ; preds = %_ZN4test6fcloseEP8_IO_FILE.exit.i
  %.pre.i = tail call ptr @__errno_location() #28
  %.pre = load i32, ptr %.pre.i, align 4, !tbaa !10
  br label %15

15:                                               ; preds = %_ZN4test6fcloseEP8_IO_FILE.exit._crit_edge.i, %_ZN4test6fcloseEP8_IO_FILE.exit.thread.i
  %16 = phi i32 [ %.pre, %_ZN4test6fcloseEP8_IO_FILE.exit._crit_edge.i ], [ 4, %_ZN4test6fcloseEP8_IO_FILE.exit.thread.i ]
  call void @_ZN3fmt3v1119report_system_errorEiPKc(i32 noundef %16, ptr noundef nonnull @.str) #29
  br label %_ZN3fmt3v1113buffered_fileD2Ev.exit

_ZN3fmt3v1113buffered_fileD2Ev.exit:              ; preds = %8, %_ZN4test6fcloseEP8_IO_FILE.exit.i, %15
  call void @llvm.lifetime.end.p0(i64 8, ptr nonnull %5) #29
  ret void

17:                                               ; preds = %3
  %18 = landingpad { ptr, i32 }
          cleanup
  call void @_ZN3fmt3v1113buffered_fileD2Ev(ptr noundef nonnull align 8 dereferenceable(8) %5) #29
  call void @llvm.lifetime.end.p0(i64 8, ptr nonnull %5) #29
  resume { ptr, i32 } %18
}